target datalayout = "e-m:e-p270:32:32-p271:32:32-p272:64:64-i64:64-i128:128-f80:128-n8:16:32:64-S128"
target triple = "x86_64-pc-linux-gnu"

@hf_gtpv2_spare_bits = internal global i32 0, align 4
@hf_gtpv2_una = internal global i32 0, align 4
@hf_gtpv2_gena = internal global i32 0, align 4
@hf_gtpv2_gana = internal global i32 0, align 4
@hf_gtpv2_ina = internal global i32 0, align 4
@hf_gtpv2_ena = internal global i32 0, align 4
@hf_gtpv2_hnna = internal global i32 0, align 4
@hf_gtpv2_hbna = internal global i32 0, align 4
@ett_gtpv2_access_rest_data = internal global i32 0, align 4
@.str.1813 = private unnamed_addr constant [24 x i8] c"Access restriction data\00", align 1

; Function Attrs: null_pointer_is_valid sspstrong uwtable
define internal i32 @dissect_gtpv2_access_restriction_data(ptr noundef %0, ptr noundef %1, i32 noundef %2) #1 {
  %4 = alloca ptr, align 8
  %5 = alloca ptr, align 8
  %6 = alloca i32, align 4
  %7 = alloca ptr, align 8
  store ptr %0, ptr %4, align 8
  store ptr %1, ptr %5, align 8
  store i32 %2, ptr %6, align 4
  call void @llvm.lifetime.start.p0(i64 8, ptr %7) #11
  %8 = load ptr, ptr %5, align 8
  %9 = load ptr, ptr %4, align 8
  %10 = load i32, ptr %6, align 4
  %11 = load i32, ptr @ett_gtpv2_access_rest_data, align 4
  %12 = call ptr @proto_tree_add_subtree(ptr noundef %8, ptr noundef %9, i32 noundef %10, i32 noundef 1, i32 noundef %11, ptr noundef null, ptr noundef @.str.1813)
  store ptr %12, ptr %7, align 8
  %13 = load ptr, ptr %7, align 8
  %14 = load i32, ptr @hf_gtpv2_spare_bits, align 4
  %15 = load ptr, ptr %4, align 8
  %16 = load i32, ptr %6, align 4
  %17 = shl i32 %16, 3
  %18 = call ptr @proto_tree_add_bits_item(ptr noundef %13, i32 noundef %14, ptr noundef %15, i32 noundef %17, i32 noundef 1, i32 noundef 0)
  %19 = load ptr, ptr %7, align 8
  %20 = load i32, ptr @hf_gtpv2_hbna, align 4
  %21 = load ptr, ptr %4, align 8
  %22 = load i32, ptr %6, align 4
  %23 = call ptr @proto_tree_add_item(ptr noundef %19, i32 noundef %20, ptr noundef %21, i32 noundef %22, i32 noundef 1, i32 noundef 0)
  %24 = load ptr, ptr %7, align 8
  %25 = load i32, ptr @hf_gtpv2_hnna, align 4
  %26 = load ptr, ptr %4, align 8
  %27 = load i32, ptr %6, align 4
  %28 = call ptr @proto_tree_add_item(ptr noundef %24, i32 noundef %25, ptr noundef %26, i32 noundef %27, i32 noundef 1, i32 noundef 0)
  %29 = load ptr, ptr %7, align 8
  %30 = load i32, ptr @hf_gtpv2_ena, align 4
  %31 = load ptr, ptr %4, align 8
  %32 = load i32, ptr %6, align 4
  %33 = call ptr @proto_tree_add_item(ptr noundef %29, i32 noundef %30, ptr noundef %31, i32 noundef %32, i32 noundef 1, i32 noundef 0)
  %34 = load ptr, ptr %7, align 8
  %35 = load i32, ptr @hf_gtpv2_ina, align 4
  %36 = load ptr, ptr %4, align 8
  %37 = load i32, ptr %6, align 4
  %38 = call ptr @proto_tree_add_item(ptr noundef %34, i32 noundef %35, ptr noundef %36, i32 noundef %37, i32 noundef 1, i32 noundef 0)
  %39 = load ptr, ptr %7, align 8
  %40 = load i32, ptr @hf_gtpv2_gana, align 4
  %41 = load ptr, ptr %4, align 8
  %42 = load i32, ptr %6, align 4
  %43 = call ptr @proto_tree_add_item(ptr noundef %39, i32 noundef %40, ptr noundef %41, i32 noundef %42, i32 noundef 1, i32 noundef 0)
  %44 = load ptr, ptr %7, align 8
  %45 = load i32, ptr @hf_gtpv2_gena, align 4
  %46 = load ptr, ptr %4, align 8
  %47 = load i32, ptr %6, align 4
  %48 = call ptr @proto_tree_add_item(ptr noundef %44, i32 noundef %45, ptr noundef %46, i32 noundef %47, i32 noundef 1, i32 noundef 0)
  %49 = load ptr, ptr %7, align 8
  %50 = load i32, ptr @hf_gtpv2_una, align 4
  %51 = load ptr, ptr %4, align 8
  %52 = load i32, ptr %6, align 4
  %53 = call ptr @proto_tree_add_item(ptr noundef %49, i32 noundef %50, ptr noundef %51, i32 noundef %52, i32 noundef 1, i32 noundef 0)
  %54 = load i32, ptr %6, align 4
  %55 = add i32 %54, 1
  store i32 %55, ptr %6, align 4
  %56 = load i32, ptr %6, align 4
  call void @llvm.lifetime.end.p0(i64 8, ptr %7) #11
  ret i32 %56
}