; Function Attrs: null_pointer_is_valid sspstrong uwtable
define internal fastcc range(i32 -2147483647, 65536) i32 @dissect_gtpv2_access_restriction_data(ptr noundef %0, ptr noundef %1, i32 noundef range(i32 -2147483648, 65535) %2) unnamed_addr #1 {
  %4 = load i32, ptr @ett_gtpv2_access_rest_data, align 4
  %5 = tail call ptr @proto_tree_add_subtree(ptr noundef %1, ptr noundef %0, i32 noundef %2, i32 noundef 1, i32 noundef %4, ptr noundef null, ptr noundef nonnull @.str.1813)
  %6 = load i32, ptr @hf_gtpv2_spare_bits, align 4
  %7 = shl i32 %2, 3
  %8 = tail call ptr @proto_tree_add_bits_item(ptr noundef %5, i32 noundef %6, ptr noundef %0, i32 noundef %7, i32 noundef 1, i32 noundef 0)
  %9 = load i32, ptr @hf_gtpv2_hbna, align 4
  %10 = tail call ptr @proto_tree_add_item(ptr noundef %5, i32 noundef %9, ptr noundef %0, i32 noundef %2, i32 noundef 1, i32 noundef 0)
  %11 = load i32, ptr @hf_gtpv2_hnna, align 4
  %12 = tail call ptr @proto_tree_add_item(ptr noundef %5, i32 noundef %11, ptr noundef %0, i32 noundef %2, i32 noundef 1, i32 noundef 0)
  %13 = load i32, ptr @hf_gtpv2_ena, align 4
  %14 = tail call ptr @proto_tree_add_item(ptr noundef %5, i32 noundef %13, ptr noundef %0, i32 noundef %2, i32 noundef 1, i32 noundef 0)
  %15 = load i32, ptr @hf_gtpv2_ina, align 4
  %16 = tail call ptr @proto_tree_add_item(ptr noundef %5, i32 noundef %15, ptr noundef %0, i32 noundef %2, i32 noundef 1, i32 noundef 0)
  %17 = load i32, ptr @hf_gtpv2_gana, align 4
  %18 = tail call ptr @proto_tree_add_item(ptr noundef %5, i32 noundef %17, ptr noundef %0, i32 noundef %2, i32 noundef 1, i32 noundef 0)
  %19 = load i32, ptr @hf_gtpv2_gena, align 4
  %20 = tail call ptr @proto_tree_add_item(ptr noundef %5, i32 noundef %19, ptr noundef %0, i32 noundef %2, i32 noundef 1, i32 noundef 0)
  %21 = load i32, ptr @hf_gtpv2_una, align 4
  %22 = tail call ptr @proto_tree_add_item(ptr noundef %5, i32 noundef %21, ptr noundef %0, i32 noundef %2, i32 noundef 1, i32 noundef 0)
  %23 = add nsw i32 %2, 1
  ret i32 %23
}